; ModuleID = '9/1065.c'
source_filename = "9/1065.c"
target datalayout = "e-m:e-p270:32:32-p271:32:32-p272:64:64-i64:64-f80:128-n8:16:32:64-S128"
target triple = "x86_64-pc-linux-gnu"

@.str = private unnamed_addr constant [3 x i8] c"%d\00", align 1
@.str.1 = private unnamed_addr constant [3 x i8] c"%s\00", align 1
@.str.2 = private unnamed_addr constant [4 x i8] c"%s\0A\00", align 1

; Function Attrs: noinline nounwind uwtable
define dso_local i32 @main() #0 {
  %1 = alloca i32, align 4
  %2 = alloca i32, align 4
  %3 = alloca i32, align 4
  %4 = alloca i32, align 4
  %5 = alloca i32, align 4
  %6 = alloca [100 x i32], align 16
  %7 = alloca i32, align 4
  %8 = alloca i32, align 4
  %9 = alloca [100 x i32], align 16
  %10 = alloca [100 x i32], align 16
  %11 = alloca i32, align 4
  %12 = alloca [100 x [11 x i8]], align 16
  %13 = alloca [100 x [10 x i8]], align 16
  %14 = alloca [100 x [10 x i8]], align 16
  %15 = alloca [11 x i8], align 1
  store i32 0, i32* %1, align 4
  store i32 0, i32* %7, align 4
  store i32 0, i32* %8, align 4
  %16 = call i32 (i8*, ...) @__isoc99_scanf(i8* getelementptr inbounds ([3 x i8], [3 x i8]* @.str, i64 0, i64 0), i32* %2)
  store i32 0, i32* %3, align 4
  br label %17

17:                                               ; preds = %31, %0
  %18 = load i32, i32* %3, align 4
  %19 = load i32, i32* %2, align 4
  %20 = icmp slt i32 %18, %19
  br i1 %20, label %21, label %34

21:                                               ; preds = %17
  %22 = load i32, i32* %3, align 4
  %23 = sext i32 %22 to i64
  %24 = getelementptr inbounds [100 x [11 x i8]], [100 x [11 x i8]]* %12, i64 0, i64 %23
  %25 = getelementptr inbounds [11 x i8], [11 x i8]* %24, i64 0, i64 0
  %26 = call i32 (i8*, ...) @__isoc99_scanf(i8* getelementptr inbounds ([3 x i8], [3 x i8]* @.str.1, i64 0, i64 0), i8* %25)
  %27 = load i32, i32* %3, align 4
  %28 = sext i32 %27 to i64
  %29 = getelementptr inbounds [100 x i32], [100 x i32]* %6, i64 0, i64 %28
  %30 = call i32 (i8*, ...) @__isoc99_scanf(i8* getelementptr inbounds ([3 x i8], [3 x i8]* @.str, i64 0, i64 0), i32* %29)
  br label %31

31:                                               ; preds = %21
  %32 = load i32, i32* %3, align 4
  %33 = add nsw i32 %32, 1
  store i32 %33, i32* %3, align 4
  br label %17

34:                                               ; preds = %17
  store i32 0, i32* %3, align 4
  br label %35

35:                                               ; preds = %52, %34
  %36 = load i32, i32* %3, align 4
  %37 = load i32, i32* %2, align 4
  %38 = icmp slt i32 %36, %37
  br i1 %38, label %39, label %55

39:                                               ; preds = %35
  %40 = load i32, i32* %3, align 4
  %41 = sext i32 %40 to i64
  %42 = getelementptr inbounds [100 x i32], [100 x i32]* %6, i64 0, i64 %41
  %43 = load i32, i32* %42, align 4
  %44 = icmp sge i32 %43, 60
  br i1 %44, label %45, label %48

45:                                               ; preds = %39
  %46 = load i32, i32* %7, align 4
  %47 = add nsw i32 %46, 1
  store i32 %47, i32* %7, align 4
  br label %51

48:                                               ; preds = %39
  %49 = load i32, i32* %8, align 4
  %50 = add nsw i32 %49, 1
  store i32 %50, i32* %8, align 4
  br label %51

51:                                               ; preds = %48, %45
  br label %52

52:                                               ; preds = %51
  %53 = load i32, i32* %3, align 4
  %54 = add nsw i32 %53, 1
  store i32 %54, i32* %3, align 4
  br label %35

55:                                               ; preds = %35
  store i32 0, i32* %3, align 4
  store i32 0, i32* %4, align 4
  store i32 0, i32* %5, align 4
  br label %56

56:                                               ; preds = %105, %55
  %57 = load i32, i32* %3, align 4
  %58 = load i32, i32* %2, align 4
  %59 = icmp slt i32 %57, %58
  br i1 %59, label %60, label %108

60:                                               ; preds = %56
  %61 = load i32, i32* %3, align 4
  %62 = sext i32 %61 to i64
  %63 = getelementptr inbounds [100 x i32], [100 x i32]* %6, i64 0, i64 %62
  %64 = load i32, i32* %63, align 4
  %65 = icmp sge i32 %64, 60
  br i1 %65, label %66, label %85

66:                                               ; preds = %60
  %67 = load i32, i32* %3, align 4
  %68 = sext i32 %67 to i64
  %69 = getelementptr inbounds [100 x i32], [100 x i32]* %6, i64 0, i64 %68
  %70 = load i32, i32* %69, align 4
  %71 = load i32, i32* %4, align 4
  %72 = sext i32 %71 to i64
  %73 = getelementptr inbounds [100 x i32], [100 x i32]* %9, i64 0, i64 %72
  store i32 %70, i32* %73, align 4
  %74 = load i32, i32* %4, align 4
  %75 = sext i32 %74 to i64
  %76 = getelementptr inbounds [100 x [10 x i8]], [100 x [10 x i8]]* %13, i64 0, i64 %75
  %77 = getelementptr inbounds [10 x i8], [10 x i8]* %76, i64 0, i64 0
  %78 = load i32, i32* %3, align 4
  %79 = sext i32 %78 to i64
  %80 = getelementptr inbounds [100 x [11 x i8]], [100 x [11 x i8]]* %12, i64 0, i64 %79
  %81 = getelementptr inbounds [11 x i8], [11 x i8]* %80, i64 0, i64 0
  %82 = call i8* @strcpy(i8* %77, i8* %81) #3
  %83 = load i32, i32* %4, align 4
  %84 = add nsw i32 %83, 1
  store i32 %84, i32* %4, align 4
  br label %104

85:                                               ; preds = %60
  %86 = load i32, i32* %3, align 4
  %87 = sext i32 %86 to i64
  %88 = getelementptr inbounds [100 x i32], [100 x i32]* %6, i64 0, i64 %87
  %89 = load i32, i32* %88, align 4
  %90 = load i32, i32* %5, align 4
  %91 = sext i32 %90 to i64
  %92 = getelementptr inbounds [100 x i32], [100 x i32]* %10, i64 0, i64 %91
  store i32 %89, i32* %92, align 4
  %93 = load i32, i32* %5, align 4
  %94 = sext i32 %93 to i64
  %95 = getelementptr inbounds [100 x [10 x i8]], [100 x [10 x i8]]* %14, i64 0, i64 %94
  %96 = getelementptr inbounds [10 x i8], [10 x i8]* %95, i64 0, i64 0
  %97 = load i32, i32* %3, align 4
  %98 = sext i32 %97 to i64
  %99 = getelementptr inbounds [100 x [11 x i8]], [100 x [11 x i8]]* %12, i64 0, i64 %98
  %100 = getelementptr inbounds [11 x i8], [11 x i8]* %99, i64 0, i64 0
  %101 = call i8* @strcpy(i8* %96, i8* %100) #3
  %102 = load i32, i32* %5, align 4
  %103 = add nsw i32 %102, 1
  store i32 %103, i32* %5, align 4
  br label %104

104:                                              ; preds = %85, %66
  br label %105

105:                                              ; preds = %104
  %106 = load i32, i32* %3, align 4
  %107 = add nsw i32 %106, 1
  store i32 %107, i32* %3, align 4
  br label %56

108:                                              ; preds = %56
  store i32 1, i32* %3, align 4
  br label %109

109:                                              ; preds = %177, %108
  %110 = load i32, i32* %3, align 4
  %111 = load i32, i32* %7, align 4
  %112 = icmp slt i32 %110, %111
  br i1 %112, label %113, label %180

113:                                              ; preds = %109
  store i32 0, i32* %4, align 4
  br label %114

114:                                              ; preds = %173, %113
  %115 = load i32, i32* %4, align 4
  %116 = load i32, i32* %7, align 4
  %117 = load i32, i32* %3, align 4
  %118 = sub nsw i32 %116, %117
  %119 = icmp slt i32 %115, %118
  br i1 %119, label %120, label %176

120:                                              ; preds = %114
  %121 = load i32, i32* %4, align 4
  %122 = sext i32 %121 to i64
  %123 = getelementptr inbounds [100 x i32], [100 x i32]* %9, i64 0, i64 %122
  %124 = load i32, i32* %123, align 4
  %125 = load i32, i32* %4, align 4
  %126 = add nsw i32 %125, 1
  %127 = sext i32 %126 to i64
  %128 = getelementptr inbounds [100 x i32], [100 x i32]* %9, i64 0, i64 %127
  %129 = load i32, i32* %128, align 4
  %130 = icmp slt i32 %124, %129
  br i1 %130, label %131, label %172

131:                                              ; preds = %120
  %132 = load i32, i32* %4, align 4
  %133 = sext i32 %132 to i64
  %134 = getelementptr inbounds [100 x i32], [100 x i32]* %9, i64 0, i64 %133
  %135 = load i32, i32* %134, align 4
  store i32 %135, i32* %11, align 4
  %136 = load i32, i32* %4, align 4
  %137 = add nsw i32 %136, 1
  %138 = sext i32 %137 to i64
  %139 = getelementptr inbounds [100 x i32], [100 x i32]* %9, i64 0, i64 %138
  %140 = load i32, i32* %139, align 4
  %141 = load i32, i32* %4, align 4
  %142 = sext i32 %141 to i64
  %143 = getelementptr inbounds [100 x i32], [100 x i32]* %9, i64 0, i64 %142
  store i32 %140, i32* %143, align 4
  %144 = load i32, i32* %11, align 4
  %145 = load i32, i32* %4, align 4
  %146 = add nsw i32 %145, 1
  %147 = sext i32 %146 to i64
  %148 = getelementptr inbounds [100 x i32], [100 x i32]* %9, i64 0, i64 %147
  store i32 %144, i32* %148, align 4
  %149 = getelementptr inbounds [11 x i8], [11 x i8]* %15, i64 0, i64 0
  %150 = load i32, i32* %4, align 4
  %151 = sext i32 %150 to i64
  %152 = getelementptr inbounds [100 x [10 x i8]], [100 x [10 x i8]]* %13, i64 0, i64 %151
  %153 = getelementptr inbounds [10 x i8], [10 x i8]* %152, i64 0, i64 0
  %154 = call i8* @strcpy(i8* %149, i8* %153) #3
  %155 = load i32, i32* %4, align 4
  %156 = sext i32 %155 to i64
  %157 = getelementptr inbounds [100 x [10 x i8]], [100 x [10 x i8]]* %13, i64 0, i64 %156
  %158 = getelementptr inbounds [10 x i8], [10 x i8]* %157, i64 0, i64 0
  %159 = load i32, i32* %4, align 4
  %160 = add nsw i32 %159, 1
  %161 = sext i32 %160 to i64
  %162 = getelementptr inbounds [100 x [10 x i8]], [100 x [10 x i8]]* %13, i64 0, i64 %161
  %163 = getelementptr inbounds [10 x i8], [10 x i8]* %162, i64 0, i64 0
  %164 = call i8* @strcpy(i8* %158, i8* %163) #3
  %165 = load i32, i32* %4, align 4
  %166 = add nsw i32 %165, 1
  %167 = sext i32 %166 to i64
  %168 = getelementptr inbounds [100 x [10 x i8]], [100 x [10 x i8]]* %13, i64 0, i64 %167
  %169 = getelementptr inbounds [10 x i8], [10 x i8]* %168, i64 0, i64 0
  %170 = getelementptr inbounds [11 x i8], [11 x i8]* %15, i64 0, i64 0
  %171 = call i8* @strcpy(i8* %169, i8* %170) #3
  br label %172

172:                                              ; preds = %131, %120
  br label %173

173:                                              ; preds = %172
  %174 = load i32, i32* %4, align 4
  %175 = add nsw i32 %174, 1
  store i32 %175, i32* %4, align 4
  br label %114

176:                                              ; preds = %114
  br label %177

177:                                              ; preds = %176
  %178 = load i32, i32* %3, align 4
  %179 = add nsw i32 %178, 1
  store i32 %179, i32* %3, align 4
  br label %109

180:                                              ; preds = %109
  store i32 0, i32* %3, align 4
  br label %181

181:                                              ; preds = %191, %180
  %182 = load i32, i32* %3, align 4
  %183 = load i32, i32* %7, align 4
  %184 = icmp slt i32 %182, %183
  br i1 %184, label %185, label %194

185:                                              ; preds = %181
  %186 = load i32, i32* %3, align 4
  %187 = sext i32 %186 to i64
  %188 = getelementptr inbounds [100 x [10 x i8]], [100 x [10 x i8]]* %13, i64 0, i64 %187
  %189 = getelementptr inbounds [10 x i8], [10 x i8]* %188, i64 0, i64 0
  %190 = call i32 (i8*, ...) @printf(i8* getelementptr inbounds ([4 x i8], [4 x i8]* @.str.2, i64 0, i64 0), i8* %189)
  br label %191

191:                                              ; preds = %185
  %192 = load i32, i32* %3, align 4
  %193 = add nsw i32 %192, 1
  store i32 %193, i32* %3, align 4
  br label %181

194:                                              ; preds = %181
  store i32 0, i32* %3, align 4
  br label %195

195:                                              ; preds = %205, %194
  %196 = load i32, i32* %3, align 4
  %197 = load i32, i32* %8, align 4
  %198 = icmp slt i32 %196, %197
  br i1 %198, label %199, label %208

199:                                              ; preds = %195
  %200 = load i32, i32* %3, align 4
  %201 = sext i32 %200 to i64
  %202 = getelementptr inbounds [100 x [10 x i8]], [100 x [10 x i8]]* %14, i64 0, i64 %201
  %203 = getelementptr inbounds [10 x i8], [10 x i8]* %202, i64 0, i64 0
  %204 = call i32 (i8*, ...) @printf(i8* getelementptr inbounds ([4 x i8], [4 x i8]* @.str.2, i64 0, i64 0), i8* %203)
  br label %205

205:                                              ; preds = %199
  %206 = load i32, i32* %3, align 4
  %207 = add nsw i32 %206, 1
  store i32 %207, i32* %3, align 4
  br label %195

208:                                              ; preds = %195
  ret i32 0
}

declare dso_local i32 @__isoc99_scanf(i8*, ...) #1

; Function Attrs: nounwind
declare dso_local i8* @strcpy(i8*, i8*) #2

declare dso_local i32 @printf(i8*, ...) #1


!llvm.module.flags = !{!0}
!llvm.ident = !{!1}

!0 = !{i32 1, !"wchar_size", i32 4}
!1 = !{!"clang version 10.0.0-4ubuntu1 "}
